; Function Attrs: nounwind uwtable
define dso_local void @add_assoc_str_ex(ptr noundef readonly captures(none) %0, ptr noundef %1, i64 noundef %2, ptr noundef %3) local_unnamed_addr #2 {
  %5 = alloca i64, align 8
  %6 = alloca %struct._zval_struct, align 8
  call void @llvm.lifetime.start.p0(i64 16, ptr nonnull %6) #34
  store ptr %3, ptr %6, align 8, !tbaa !42
  %7 = getelementptr inbounds nuw i8, ptr %3, i64 4
  %8 = load i32, ptr %7, align 4, !tbaa !42
  %9 = and i32 %8, 64
  %.not = icmp eq i32 %9, 0
  %10 = select i1 %.not, i32 262, i32 6
  %11 = getelementptr inbounds nuw i8, ptr %6, i64 8
  store i32 %10, ptr %11, align 8, !tbaa !42
  %12 = load ptr, ptr %0, align 8, !tbaa !42
  call void @llvm.lifetime.start.p0(i64 8, ptr nonnull %5) #34
  %13 = load i8, ptr %1, align 1, !tbaa !42
  %14 = icmp sgt i8 %13, 57
  br i1 %14, label %_zend_handle_numeric_str.exit.thread, label %15, !prof !45

15:                                               ; preds = %4
  %16 = icmp slt i8 %13, 48
  br i1 %16, label %17, label %_zend_handle_numeric_str.exit

17:                                               ; preds = %15
  %.not.i = icmp eq i8 %13, 45
  br i1 %.not.i, label %18, label %_zend_handle_numeric_str.exit.thread

18:                                               ; preds = %17
  %19 = getelementptr inbounds nuw i8, ptr %1, i64 1
  %20 = load i8, ptr %19, align 1, !tbaa !42
  %21 = add i8 %20, -58
  %or.cond.i = icmp ult i8 %21, -10
  br i1 %or.cond.i, label %_zend_handle_numeric_str.exit.thread, label %_zend_handle_numeric_str.exit

_zend_handle_numeric_str.exit:                    ; preds = %15, %18
  %22 = call zeroext i1 @_zend_handle_numeric_str_ex(ptr noundef nonnull %1, i64 noundef %2, ptr noundef nonnull %5) #34
  br i1 %22, label %23, label %_zend_handle_numeric_str.exit.thread

23:                                               ; preds = %_zend_handle_numeric_str.exit
  %24 = load i64, ptr %5, align 8, !tbaa !73
  %25 = call ptr @zend_hash_index_update(ptr noundef %12, i64 noundef %24, ptr noundef nonnull %6) #34
  br label %zend_symtable_str_update.exit

_zend_handle_numeric_str.exit.thread:             ; preds = %18, %17, %4, %_zend_handle_numeric_str.exit
  %26 = call ptr @zend_hash_str_update(ptr noundef %12, ptr noundef nonnull %1, i64 noundef %2, ptr noundef nonnull %6) #34
  br label %zend_symtable_str_update.exit

zend_symtable_str_update.exit:                    ; preds = %23, %_zend_handle_numeric_str.exit.thread
  call void @llvm.lifetime.end.p0(i64 8, ptr nonnull %5) #34
  call void @llvm.lifetime.end.p0(i64 16, ptr nonnull %6) #34
  ret void
}